target datalayout = "e-m:e-p270:32:32-p271:32:32-p272:64:64-i64:64-i128:128-f80:128-n8:16:32:64-S128"
target triple = "x86_64-pc-linux-gnu"

%struct.sockaddr_un = type { i16, [108 x i8] }
%struct.sockaddr_in = type { i16, i16, %struct.in_addr, [8 x i8] }
%struct.in_addr = type { i32 }
%struct.sockaddr_in6 = type { i16, i16, i32, %struct.in6_addr, i32 }
%struct.in6_addr = type { %union.anon }
%union.anon = type { [4 x i32] }

; Function Attrs: nounwind uwtable
define i32 @BIO_ADDR_rawmake(ptr noundef %0, i32 noundef %1, ptr noundef %2, i64 noundef %3, i16 noundef zeroext %4) #0 {
  %6 = alloca i32, align 4
  %7 = alloca ptr, align 8
  %8 = alloca i32, align 4
  %9 = alloca ptr, align 8
  %10 = alloca i64, align 8
  %11 = alloca i16, align 2
  store ptr %0, ptr %7, align 8, !tbaa !3
  store i32 %1, ptr %8, align 4, !tbaa !14
  store ptr %2, ptr %9, align 8, !tbaa !16
  store i64 %3, ptr %10, align 8, !tbaa !17
  store i16 %4, ptr %11, align 2, !tbaa !19
  %12 = load i32, ptr %8, align 4, !tbaa !14
  %13 = icmp eq i32 %12, 1
  br i1 %13, label %14, label %30

14:                                               ; preds = %5
  %15 = load i64, ptr %10, align 8, !tbaa !17
  %16 = add i64 %15, 1
  %17 = icmp ugt i64 %16, 108
  br i1 %17, label %18, label %19

18:                                               ; preds = %14
  store i32 0, ptr %6, align 4
  br label %69

19:                                               ; preds = %14
  %20 = load ptr, ptr %7, align 8, !tbaa !3
  call void @llvm.memset.p0.i64(ptr align 4 %20, i8 0, i64 110, i1 false)
  %21 = load i32, ptr %8, align 4, !tbaa !14
  %22 = trunc i32 %21 to i16
  %23 = load ptr, ptr %7, align 8, !tbaa !3
  %24 = getelementptr inbounds nuw %struct.sockaddr_un, ptr %23, i32 0, i32 0
  store i16 %22, ptr %24, align 4, !tbaa !8
  %25 = load ptr, ptr %7, align 8, !tbaa !3
  %26 = getelementptr inbounds nuw %struct.sockaddr_un, ptr %25, i32 0, i32 1
  %27 = getelementptr inbounds [108 x i8], ptr %26, i64 0, i64 0
  %28 = load ptr, ptr %9, align 8, !tbaa !16
  %29 = call ptr @strncpy(ptr noundef %27, ptr noundef %28, i64 noundef 107) #9
  store i32 1, ptr %6, align 4
  br label %69

30:                                               ; preds = %5
  %31 = load i32, ptr %8, align 4, !tbaa !14
  %32 = icmp eq i32 %31, 2
  br i1 %32, label %33, label %49

33:                                               ; preds = %30
  %34 = load i64, ptr %10, align 8, !tbaa !17
  %35 = icmp ne i64 %34, 4
  br i1 %35, label %36, label %37

36:                                               ; preds = %33
  store i32 0, ptr %6, align 4
  br label %69

37:                                               ; preds = %33
  %38 = load ptr, ptr %7, align 8, !tbaa !3
  call void @llvm.memset.p0.i64(ptr align 4 %38, i8 0, i64 16, i1 false)
  %39 = load i32, ptr %8, align 4, !tbaa !14
  %40 = trunc i32 %39 to i16
  %41 = load ptr, ptr %7, align 8, !tbaa !3
  %42 = getelementptr inbounds nuw %struct.sockaddr_in, ptr %41, i32 0, i32 0
  store i16 %40, ptr %42, align 4, !tbaa !8
  %43 = load i16, ptr %11, align 2, !tbaa !19
  %44 = load ptr, ptr %7, align 8, !tbaa !3
  %45 = getelementptr inbounds nuw %struct.sockaddr_in, ptr %44, i32 0, i32 1
  store i16 %43, ptr %45, align 2, !tbaa !8
  %46 = load ptr, ptr %7, align 8, !tbaa !3
  %47 = getelementptr inbounds nuw %struct.sockaddr_in, ptr %46, i32 0, i32 2
  %48 = load ptr, ptr %9, align 8, !tbaa !16
  call void @llvm.memcpy.p0.p0.i64(ptr align 4 %47, ptr align 4 %48, i64 4, i1 false), !tbaa.struct !20
  store i32 1, ptr %6, align 4
  br label %69

49:                                               ; preds = %30
  %50 = load i32, ptr %8, align 4, !tbaa !14
  %51 = icmp eq i32 %50, 10
  br i1 %51, label %52, label %68

52:                                               ; preds = %49
  %53 = load i64, ptr %10, align 8, !tbaa !17
  %54 = icmp ne i64 %53, 16
  br i1 %54, label %55, label %56

55:                                               ; preds = %52
  store i32 0, ptr %6, align 4
  br label %69

56:                                               ; preds = %52
  %57 = load ptr, ptr %7, align 8, !tbaa !3
  call void @llvm.memset.p0.i64(ptr align 4 %57, i8 0, i64 28, i1 false)
  %58 = load i32, ptr %8, align 4, !tbaa !14
  %59 = trunc i32 %58 to i16
  %60 = load ptr, ptr %7, align 8, !tbaa !3
  %61 = getelementptr inbounds nuw %struct.sockaddr_in6, ptr %60, i32 0, i32 0
  store i16 %59, ptr %61, align 4, !tbaa !8
  %62 = load i16, ptr %11, align 2, !tbaa !19
  %63 = load ptr, ptr %7, align 8, !tbaa !3
  %64 = getelementptr inbounds nuw %struct.sockaddr_in6, ptr %63, i32 0, i32 1
  store i16 %62, ptr %64, align 2, !tbaa !8
  %65 = load ptr, ptr %7, align 8, !tbaa !3
  %66 = getelementptr inbounds nuw %struct.sockaddr_in6, ptr %65, i32 0, i32 3
  %67 = load ptr, ptr %9, align 8, !tbaa !16
  call void @llvm.memcpy.p0.p0.i64(ptr align 4 %66, ptr align 4 %67, i64 16, i1 false), !tbaa.struct !21
  store i32 1, ptr %6, align 4
  br label %69

68:                                               ; preds = %49
  store i32 0, ptr %6, align 4
  br label %69

69:                                               ; preds = %68, %56, %55, %37, %36, %19, %18
  %70 = load i32, ptr %6, align 4
  ret i32 %70
}