; Function Attrs: mustprogress nofree nounwind willreturn memory(argmem: readwrite) uwtable
define range(i32 0, 2) i32 @BIO_ADDR_rawmake(ptr noundef %0, i32 noundef %1, ptr noundef readonly captures(none) %2, i64 noundef %3, i16 noundef zeroext %4) local_unnamed_addr #7 {
  switch i32 %1, label %23 [
    i32 1, label %6
    i32 2, label %12
    i32 10, label %18
  ]

6:                                                ; preds = %5
  %7 = add i64 %3, -108
  %8 = icmp ult i64 %7, -109
  br i1 %8, label %23, label %9

9:                                                ; preds = %6
  tail call void @llvm.memset.p0.i64(ptr noundef nonnull align 4 dereferenceable(110) %0, i8 0, i64 110, i1 false)
  store i16 1, ptr %0, align 4, !tbaa !3
  %10 = getelementptr inbounds nuw i8, ptr %0, i64 2
  %11 = tail call ptr @strncpy(ptr noundef nonnull dereferenceable(1) %10, ptr noundef nonnull dereferenceable(1) %2, i64 noundef 107) #15
  br label %23

12:                                               ; preds = %5
  %.not26 = icmp eq i64 %3, 4
  br i1 %.not26, label %13, label %23

13:                                               ; preds = %12
  %14 = getelementptr inbounds nuw i8, ptr %0, i64 4
  tail call void @llvm.memset.p0.i64(ptr noundef nonnull align 4 dereferenceable(16) %14, i8 0, i64 12, i1 false)
  store i16 2, ptr %0, align 4, !tbaa !3
  %15 = getelementptr inbounds nuw i8, ptr %0, i64 2
  store i16 %4, ptr %15, align 2, !tbaa !3
  %16 = getelementptr inbounds nuw i8, ptr %0, i64 4
  %17 = load i32, ptr %2, align 4, !tbaa !9
  store i32 %17, ptr %16, align 4, !tbaa !9
  br label %23

18:                                               ; preds = %5
  %.not = icmp eq i64 %3, 16
  br i1 %.not, label %19, label %23

19:                                               ; preds = %18
  %20 = getelementptr inbounds nuw i8, ptr %0, i64 4
  tail call void @llvm.memset.p0.i64(ptr noundef nonnull align 4 dereferenceable(28) %20, i8 0, i64 24, i1 false)
  store i16 10, ptr %0, align 4, !tbaa !3
  %21 = getelementptr inbounds nuw i8, ptr %0, i64 2
  store i16 %4, ptr %21, align 2, !tbaa !3
  %22 = getelementptr inbounds nuw i8, ptr %0, i64 8
  tail call void @llvm.memcpy.p0.p0.i64(ptr noundef nonnull align 4 dereferenceable(16) %22, ptr noundef nonnull align 4 dereferenceable(16) %2, i64 16, i1 false), !tbaa.struct !11
  br label %23

23:                                               ; preds = %5, %18, %12, %6, %19, %13, %9
  %.0 = phi i32 [ 1, %9 ], [ 1, %13 ], [ 1, %19 ], [ 0, %6 ], [ 0, %12 ], [ 0, %18 ], [ 0, %5 ]
  ret i32 %.0
}